target datalayout = "e-m:e-p270:32:32-p271:32:32-p272:64:64-i64:64-i128:128-f80:128-n8:16:32:64-S128"
target triple = "x86_64-pc-linux-gnu"

%struct.Font = type { i32, i32, i32, %struct.Texture, ptr, ptr }
%struct.Texture = type { i32, i32, i32, i32, i32 }
%struct.Color = type { i8, i8, i8, i8 }
%struct.Vector2 = type { float, float }

@defaultFont = internal global %struct.Font zeroinitializer, align 8
@__const.DrawFPS.color = private unnamed_addr constant %struct.Color { i8 0, i8 -98, i8 47, i8 -1 }, align 1
@.str.60 = private unnamed_addr constant [8 x i8] c"%2i FPS\00", align 1

; Function Attrs: nounwind uwtable
define void @GetFontDefault(ptr dead_on_unwind noalias writable sret(%struct.Font) align 8 %0) #0 {
  call void @llvm.memcpy.p0.p0.i64(ptr align 8 %0, ptr align 8 @defaultFont, i64 48, i1 false)
  ret void
}

; Function Attrs: nounwind uwtable
define void @DrawText(ptr noundef %0, i32 noundef %1, i32 noundef %2, i32 noundef %3, i32 %4) #3 {
  %6 = alloca %struct.Color, align 1
  %7 = alloca ptr, align 8
  %8 = alloca i32, align 4
  %9 = alloca i32, align 4
  %10 = alloca i32, align 4
  %11 = alloca %struct.Font, align 8
  %12 = alloca %struct.Vector2, align 4
  %13 = alloca i32, align 4
  %14 = alloca i32, align 4
  %15 = alloca %struct.Font, align 8
  store i32 %4, ptr %6, align 1
  store ptr %0, ptr %7, align 8
  store i32 %1, ptr %8, align 4
  store i32 %2, ptr %9, align 4
  store i32 %3, ptr %10, align 4
  call void @GetFontDefault(ptr dead_on_unwind writable sret(%struct.Font) align 8 %11)
  %16 = getelementptr inbounds nuw %struct.Font, ptr %11, i32 0, i32 3
  %17 = getelementptr inbounds nuw %struct.Texture, ptr %16, i32 0, i32 0
  %18 = load i32, ptr %17, align 4
  %19 = icmp ne i32 %18, 0
  br i1 %19, label %20, label %43

20:                                               ; preds = %5
  call void @llvm.lifetime.start.p0(i64 8, ptr %12) #13
  %21 = getelementptr inbounds nuw %struct.Vector2, ptr %12, i32 0, i32 0
  %22 = load i32, ptr %8, align 4
  %23 = sitofp i32 %22 to float
  store float %23, ptr %21, align 4
  %24 = getelementptr inbounds nuw %struct.Vector2, ptr %12, i32 0, i32 1
  %25 = load i32, ptr %9, align 4
  %26 = sitofp i32 %25 to float
  store float %26, ptr %24, align 4
  call void @llvm.lifetime.start.p0(i64 4, ptr %13) #13
  store i32 10, ptr %13, align 4
  %27 = load i32, ptr %10, align 4
  %28 = load i32, ptr %13, align 4
  %29 = icmp slt i32 %27, %28
  br i1 %29, label %30, label %32

30:                                               ; preds = %20
  %31 = load i32, ptr %13, align 4
  store i32 %31, ptr %10, align 4
  br label %32

32:                                               ; preds = %30, %20
  call void @llvm.lifetime.start.p0(i64 4, ptr %14) #13
  %33 = load i32, ptr %10, align 4
  %34 = load i32, ptr %13, align 4
  %35 = sdiv i32 %33, %34
  store i32 %35, ptr %14, align 4
  call void @GetFontDefault(ptr dead_on_unwind writable sret(%struct.Font) align 8 %15)
  %36 = load ptr, ptr %7, align 8
  %37 = load i32, ptr %10, align 4
  %38 = sitofp i32 %37 to float
  %39 = load i32, ptr %14, align 4
  %40 = sitofp i32 %39 to float
  %41 = load <2 x float>, ptr %12, align 4
  %42 = load i32, ptr %6, align 1
  call void @DrawTextEx(ptr noundef byval(%struct.Font) align 8 %15, ptr noundef %36, <2 x float> %41, float noundef %38, float noundef %40, i32 %42)
  call void @llvm.lifetime.end.p0(i64 4, ptr %14) #13
  call void @llvm.lifetime.end.p0(i64 4, ptr %13) #13
  call void @llvm.lifetime.end.p0(i64 8, ptr %12) #13
  br label %43

43:                                               ; preds = %32, %5
  ret void
}

; Function Attrs: nounwind uwtable
define void @DrawFPS(i32 noundef %0, i32 noundef %1) #0 {
  %3 = alloca i32, align 4
  %4 = alloca i32, align 4
  %5 = alloca %struct.Color, align 1
  %6 = alloca i32, align 4
  %7 = alloca %struct.Color, align 1
  %8 = alloca %struct.Color, align 1
  store i32 %0, ptr %3, align 4
  store i32 %1, ptr %4, align 4
  call void @llvm.lifetime.start.p0(i64 4, ptr %5) #13
  call void @llvm.memcpy.p0.p0.i64(ptr align 1 %5, ptr align 1 @__const.DrawFPS.color, i64 4, i1 false)
  call void @llvm.lifetime.start.p0(i64 4, ptr %6) #13
  %9 = call i32 @GetFPS()
  store i32 %9, ptr %6, align 4
  %10 = load i32, ptr %6, align 4
  %11 = icmp slt i32 %10, 30
  br i1 %11, label %12, label %20

12:                                               ; preds = %2
  %13 = load i32, ptr %6, align 4
  %14 = icmp sge i32 %13, 15
  br i1 %14, label %15, label %20

15:                                               ; preds = %12
  %16 = getelementptr inbounds nuw %struct.Color, ptr %7, i32 0, i32 0
  store i8 -1, ptr %16, align 1
  %17 = getelementptr inbounds nuw %struct.Color, ptr %7, i32 0, i32 1
  store i8 -95, ptr %17, align 1
  %18 = getelementptr inbounds nuw %struct.Color, ptr %7, i32 0, i32 2
  store i8 0, ptr %18, align 1
  %19 = getelementptr inbounds nuw %struct.Color, ptr %7, i32 0, i32 3
  store i8 -1, ptr %19, align 1
  call void @llvm.memcpy.p0.p0.i64(ptr align 1 %5, ptr align 1 %7, i64 4, i1 false)
  br label %29

20:                                               ; preds = %12, %2
  %21 = load i32, ptr %6, align 4
  %22 = icmp slt i32 %21, 15
  br i1 %22, label %23, label %28

23:                                               ; preds = %20
  %24 = getelementptr inbounds nuw %struct.Color, ptr %8, i32 0, i32 0
  store i8 -26, ptr %24, align 1
  %25 = getelementptr inbounds nuw %struct.Color, ptr %8, i32 0, i32 1
  store i8 41, ptr %25, align 1
  %26 = getelementptr inbounds nuw %struct.Color, ptr %8, i32 0, i32 2
  store i8 55, ptr %26, align 1
  %27 = getelementptr inbounds nuw %struct.Color, ptr %8, i32 0, i32 3
  store i8 -1, ptr %27, align 1
  call void @llvm.memcpy.p0.p0.i64(ptr align 1 %5, ptr align 1 %8, i64 4, i1 false)
  br label %28

28:                                               ; preds = %23, %20
  br label %29

29:                                               ; preds = %28, %15
  %30 = load i32, ptr %6, align 4
  %31 = call ptr (ptr, ...) @TextFormat(ptr noundef @.str.60, i32 noundef %30)
  %32 = load i32, ptr %3, align 4
  %33 = load i32, ptr %4, align 4
  %34 = load i32, ptr %5, align 1
  call void @DrawText(ptr noundef %31, i32 noundef %32, i32 noundef %33, i32 noundef 20, i32 %34)
  call void @llvm.lifetime.end.p0(i64 4, ptr %6) #13
  call void @llvm.lifetime.end.p0(i64 4, ptr %5) #13
  ret void
}