; Function Attrs: nounwind uwtable
define void @DrawFPS(i32 noundef %0, i32 noundef %1) local_unnamed_addr #6 {
  %3 = tail call i32 @GetFPS() #41
  %4 = add i32 %3, -15
  %or.cond = icmp ult i32 %4, 15
  br i1 %or.cond, label %8, label %5

5:                                                ; preds = %2
  %6 = icmp slt i32 %3, 15
  br i1 %6, label %7, label %8

7:                                                ; preds = %5
  br label %8

8:                                                ; preds = %2, %5, %7
  %.sroa.09.0 = phi i32 [ 230, %7 ], [ 0, %5 ], [ 255, %2 ]
  %.sroa.6.0 = phi i32 [ 10496, %7 ], [ 40448, %5 ], [ 41216, %2 ]
  %.sroa.8.0 = phi i32 [ -13172736, %7 ], [ -13697024, %5 ], [ -16777216, %2 ]
  %9 = tail call ptr (ptr, ...) @TextFormat(ptr noundef nonnull @.str.60, i32 noundef %3)
  %.sroa.1.0.copyload.i = load i32, ptr getelementptr inbounds nuw (i8, ptr @defaultFont, i64 12), align 4
  %.not.i = icmp eq i32 %.sroa.1.0.copyload.i, 0
  br i1 %.not.i, label %DrawText.exit, label %10

10:                                               ; preds = %8
  %.sroa.6.0.insert.insert = or disjoint i32 %.sroa.6.0, %.sroa.09.0
  %.sroa.09.0.insert.insert = or disjoint i32 %.sroa.6.0.insert.insert, %.sroa.8.0
  %11 = sitofp i32 %0 to float
  %.sroa.0.0.vec.insert.i = insertelement <2 x float> poison, float %11, i64 0
  %12 = sitofp i32 %1 to float
  %.sroa.0.4.vec.insert.i = insertelement <2 x float> %.sroa.0.0.vec.insert.i, float %12, i64 1
  tail call void @DrawTextEx(ptr noundef nonnull byval(%struct.Font) align 8 @defaultFont, ptr noundef nonnull %9, <2 x float> %.sroa.0.4.vec.insert.i, float noundef 2.000000e+01, float noundef 2.000000e+00, i32 %.sroa.09.0.insert.insert)
  br label %DrawText.exit

DrawText.exit:                                    ; preds = %8, %10
  ret void
}